target datalayout = "e-m:e-p270:32:32-p271:32:32-p272:64:64-i64:64-i128:128-f80:128-n8:16:32:64-S128"
target triple = "x86_64-pc-linux-gnu"

%"struct.std::atomic.17" = type { %"struct.std::__atomic_base.18" }
%"struct.std::__atomic_base.18" = type { i64 }
%"class.std::_Sp_counted_base" = type { ptr, i32, i32 }
%"struct.pxrInternal_v0_24__pxrReserved__::(anonymous namespace)::_DispatchingResolver::_Cache" = type { %"class.tbb::detail::d2::concurrent_hash_map" }
%"class.tbb::detail::d2::concurrent_hash_map" = type <{ %"class.tbb::detail::d2::hash_map_base", [8 x i8] }>
%"class.tbb::detail::d2::hash_map_base" = type { [8 x i8], %"struct.std::atomic.17", %"struct.std::atomic.17", [2 x %"struct.tbb::detail::d2::hash_map_base<tbb::detail::d1::tbb_allocator<std::pair<const std::__cxx11::basic_string<char>, pxrInternal_v0_24__pxrReserved__::ArResolvedPath>>, tbb::detail::d1::spin_rw_mutex>::bucket"], [64 x %"struct.std::atomic.252"] }
%"struct.tbb::detail::d2::hash_map_base<tbb::detail::d1::tbb_allocator<std::pair<const std::__cxx11::basic_string<char>, pxrInternal_v0_24__pxrReserved__::ArResolvedPath>>, tbb::detail::d1::spin_rw_mutex>::bucket" = type { %"class.tbb::detail::d1::spin_rw_mutex", %"struct.std::atomic.250" }
%"class.tbb::detail::d1::spin_rw_mutex" = type { %"struct.std::atomic.248" }
%"struct.std::atomic.248" = type { %"struct.std::__atomic_base.249" }
%"struct.std::__atomic_base.249" = type { i64 }
%"struct.std::atomic.250" = type { %"struct.std::__atomic_base.251" }
%"struct.std::__atomic_base.251" = type { ptr }
%"struct.std::atomic.252" = type { %"struct.std::__atomic_base.253" }
%"struct.std::__atomic_base.253" = type { ptr }
%"class.std::_Sp_counted_ptr_inplace.320" = type { %"class.std::_Sp_counted_base", %"class.std::_Sp_counted_ptr_inplace<pxrInternal_v0_24__pxrReserved__::(anonymous namespace)::_DispatchingResolver::_Cache, std::allocator<void>, __gnu_cxx::_S_atomic>::_Impl" }
%"class.std::_Sp_counted_ptr_inplace<pxrInternal_v0_24__pxrReserved__::(anonymous namespace)::_DispatchingResolver::_Cache, std::allocator<void>, __gnu_cxx::_S_atomic>::_Impl" = type { %"struct.__gnu_cxx::__aligned_buffer.321" }
%"struct.__gnu_cxx::__aligned_buffer.321" = type { %"union.std::aligned_storage<576, 8>::type" }
%"union.std::aligned_storage<576, 8>::type" = type { [576 x i8] }

; Function Attrs: mustprogress nounwind uwtable
define linkonce_odr void @_ZN3tbb6detail2d113spin_rw_mutexD2Ev(ptr noundef nonnull align 8 dereferenceable(8) %0) unnamed_addr #2 comdat align 2 {
  %2 = alloca ptr, align 8
  store ptr %0, ptr %2, align 8
  ret void
}

; Function Attrs: mustprogress nounwind uwtable
define linkonce_odr void @_ZN3tbb6detail2d213hash_map_baseINS0_2d113tbb_allocatorISt4pairIKNSt7__cxx1112basic_stringIcSt11char_traitsIcESaIcEEEN32pxrInternal_v0_24__pxrReserved__14ArResolvedPathEEEENS3_13spin_rw_mutexEE6bucketD2Ev(ptr noundef nonnull align 8 dereferenceable(16) %0) unnamed_addr #2 comdat align 2 {
  %2 = alloca ptr, align 8
  store ptr %0, ptr %2, align 8
  %3 = load ptr, ptr %2, align 8
  %4 = getelementptr inbounds nuw %"struct.tbb::detail::d2::hash_map_base<tbb::detail::d1::tbb_allocator<std::pair<const std::__cxx11::basic_string<char>, pxrInternal_v0_24__pxrReserved__::ArResolvedPath>>, tbb::detail::d1::spin_rw_mutex>::bucket", ptr %3, i32 0, i32 0
  call void @_ZN3tbb6detail2d113spin_rw_mutexD2Ev(ptr noundef nonnull align 8 dereferenceable(8) %4) #6
  ret void
}

; Function Attrs: mustprogress nounwind uwtable
define linkonce_odr void @_ZN3tbb6detail2d213hash_map_baseINS0_2d113tbb_allocatorISt4pairIKNSt7__cxx1112basic_stringIcSt11char_traitsIcESaIcEEEN32pxrInternal_v0_24__pxrReserved__14ArResolvedPathEEEENS3_13spin_rw_mutexEED2Ev(ptr noundef nonnull align 8 dereferenceable(568) %0) unnamed_addr #2 comdat align 2 {
  %2 = alloca ptr, align 8
  store ptr %0, ptr %2, align 8
  %3 = load ptr, ptr %2, align 8
  %4 = getelementptr inbounds nuw %"class.tbb::detail::d2::hash_map_base", ptr %3, i32 0, i32 3
  %5 = getelementptr inbounds [2 x %"struct.tbb::detail::d2::hash_map_base<tbb::detail::d1::tbb_allocator<std::pair<const std::__cxx11::basic_string<char>, pxrInternal_v0_24__pxrReserved__::ArResolvedPath>>, tbb::detail::d1::spin_rw_mutex>::bucket"], ptr %4, i32 0, i32 0
  %6 = getelementptr inbounds %"struct.tbb::detail::d2::hash_map_base<tbb::detail::d1::tbb_allocator<std::pair<const std::__cxx11::basic_string<char>, pxrInternal_v0_24__pxrReserved__::ArResolvedPath>>, tbb::detail::d1::spin_rw_mutex>::bucket", ptr %5, i64 2
  br label %7

7:                                                ; preds = %7, %1
  %8 = phi ptr [ %6, %1 ], [ %9, %7 ]
  %9 = getelementptr inbounds %"struct.tbb::detail::d2::hash_map_base<tbb::detail::d1::tbb_allocator<std::pair<const std::__cxx11::basic_string<char>, pxrInternal_v0_24__pxrReserved__::ArResolvedPath>>, tbb::detail::d1::spin_rw_mutex>::bucket", ptr %8, i64 -1
  call void @_ZN3tbb6detail2d213hash_map_baseINS0_2d113tbb_allocatorISt4pairIKNSt7__cxx1112basic_stringIcSt11char_traitsIcESaIcEEEN32pxrInternal_v0_24__pxrReserved__14ArResolvedPathEEEENS3_13spin_rw_mutexEE6bucketD2Ev(ptr noundef nonnull align 8 dereferenceable(16) %9) #6
  %10 = icmp eq ptr %9, %5
  br i1 %10, label %11, label %7

11:                                               ; preds = %7
  ret void
}

; Function Attrs: mustprogress nounwind uwtable
define linkonce_odr void @_ZN3tbb6detail2d219concurrent_hash_mapINSt7__cxx1112basic_stringIcSt11char_traitsIcESaIcEEEN32pxrInternal_v0_24__pxrReserved__14ArResolvedPathENS0_2d116tbb_hash_compareIS8_EENSB_13tbb_allocatorISt4pairIKS8_SA_EEEED2Ev(ptr noundef nonnull align 8 dereferenceable(570) %0) unnamed_addr #2 comdat align 2 personality ptr @__gxx_personality_v0 {
  %2 = alloca ptr, align 8
  store ptr %0, ptr %2, align 8
  %3 = load ptr, ptr %2, align 8
  invoke void @_ZN3tbb6detail2d219concurrent_hash_mapINSt7__cxx1112basic_stringIcSt11char_traitsIcESaIcEEEN32pxrInternal_v0_24__pxrReserved__14ArResolvedPathENS0_2d116tbb_hash_compareIS8_EENSB_13tbb_allocatorISt4pairIKS8_SA_EEEE5clearEv(ptr noundef nonnull align 8 dereferenceable(570) %3)
          to label %4 unwind label %5

4:                                                ; preds = %1
  call void @_ZN3tbb6detail2d213hash_map_baseINS0_2d113tbb_allocatorISt4pairIKNSt7__cxx1112basic_stringIcSt11char_traitsIcESaIcEEEN32pxrInternal_v0_24__pxrReserved__14ArResolvedPathEEEENS3_13spin_rw_mutexEED2Ev(ptr noundef nonnull align 8 dereferenceable(568) %3) #6
  ret void

5:                                                ; preds = %1
  %6 = landingpad { ptr, i32 }
          catch ptr null
  %7 = extractvalue { ptr, i32 } %6, 0
  call void @__clang_call_terminate(ptr %7) #18
  unreachable
}

; Function Attrs: mustprogress nounwind uwtable
define internal void @_ZN32pxrInternal_v0_24__pxrReserved__12_GLOBAL__N_120_DispatchingResolver6_CacheD2Ev(ptr noundef nonnull align 8 dereferenceable(576) %0) unnamed_addr #2 align 2 {
  %2 = alloca ptr, align 8
  store ptr %0, ptr %2, align 8
  %3 = load ptr, ptr %2, align 8
  %4 = getelementptr inbounds nuw %"struct.pxrInternal_v0_24__pxrReserved__::(anonymous namespace)::_DispatchingResolver::_Cache", ptr %3, i32 0, i32 0
  call void @_ZN3tbb6detail2d219concurrent_hash_mapINSt7__cxx1112basic_stringIcSt11char_traitsIcESaIcEEEN32pxrInternal_v0_24__pxrReserved__14ArResolvedPathENS0_2d116tbb_hash_compareIS8_EENSB_13tbb_allocatorISt4pairIKS8_SA_EEEED2Ev(ptr noundef nonnull align 8 dereferenceable(570) %4) #6
  ret void
}

; Function Attrs: mustprogress nounwind uwtable
define internal noundef ptr @_ZN9__gnu_cxx16__aligned_bufferIN32pxrInternal_v0_24__pxrReserved__12_GLOBAL__N_120_DispatchingResolver6_CacheEE7_M_addrEv(ptr noundef nonnull align 8 dereferenceable(576) %0) #2 align 2 {
  %2 = alloca ptr, align 8
  store ptr %0, ptr %2, align 8
  %3 = load ptr, ptr %2, align 8
  %4 = getelementptr inbounds nuw %"struct.__gnu_cxx::__aligned_buffer.321", ptr %3, i32 0, i32 0
  ret ptr %4
}

; Function Attrs: mustprogress nounwind uwtable
define internal void @_ZSt8_DestroyIN32pxrInternal_v0_24__pxrReserved__12_GLOBAL__N_120_DispatchingResolver6_CacheEEvPT_(ptr noundef %0) #2 {
  %2 = alloca ptr, align 8
  store ptr %0, ptr %2, align 8
  %3 = load ptr, ptr %2, align 8
  call void @_ZN32pxrInternal_v0_24__pxrReserved__12_GLOBAL__N_120_DispatchingResolver6_CacheD2Ev(ptr noundef nonnull align 8 dereferenceable(576) %3) #6
  ret void
}

; Function Attrs: mustprogress nounwind uwtable
define internal noundef ptr @_ZN9__gnu_cxx16__aligned_bufferIN32pxrInternal_v0_24__pxrReserved__12_GLOBAL__N_120_DispatchingResolver6_CacheEE6_M_ptrEv(ptr noundef nonnull align 8 dereferenceable(576) %0) #2 align 2 {
  %2 = alloca ptr, align 8
  store ptr %0, ptr %2, align 8
  %3 = load ptr, ptr %2, align 8
  %4 = call noundef ptr @_ZN9__gnu_cxx16__aligned_bufferIN32pxrInternal_v0_24__pxrReserved__12_GLOBAL__N_120_DispatchingResolver6_CacheEE7_M_addrEv(ptr noundef nonnull align 8 dereferenceable(576) %3) #6
  ret ptr %4
}

; Function Attrs: mustprogress nounwind uwtable
define linkonce_odr noundef nonnull align 1 dereferenceable(1) ptr @_ZNSt14_Sp_ebo_helperILi0ESaIvELb1EE6_S_getERS1_(ptr noundef nonnull align 1 dereferenceable(1) %0) #2 comdat align 2 {
  %2 = alloca ptr, align 8
  store ptr %0, ptr %2, align 8
  %3 = load ptr, ptr %2, align 8
  ret ptr %3
}

; Function Attrs: mustprogress nounwind uwtable
define internal void @_ZNSt16allocator_traitsISaIvEE7destroyIN32pxrInternal_v0_24__pxrReserved__12_GLOBAL__N_120_DispatchingResolver6_CacheEEEvRS0_PT_(ptr noundef nonnull align 1 dereferenceable(1) %0, ptr noundef %1) #2 align 2 personality ptr @__gxx_personality_v0 {
  %3 = alloca ptr, align 8
  %4 = alloca ptr, align 8
  store ptr %0, ptr %3, align 8
  store ptr %1, ptr %4, align 8
  %5 = load ptr, ptr %4, align 8
  invoke void @_ZSt8_DestroyIN32pxrInternal_v0_24__pxrReserved__12_GLOBAL__N_120_DispatchingResolver6_CacheEEvPT_(ptr noundef %5)
          to label %6 unwind label %7

6:                                                ; preds = %2
  ret void

7:                                                ; preds = %2
  %8 = landingpad { ptr, i32 }
          catch ptr null
  %9 = extractvalue { ptr, i32 } %8, 0
  call void @__clang_call_terminate(ptr %9) #18
  unreachable
}

; Function Attrs: mustprogress nounwind uwtable
define internal noundef ptr @_ZNSt23_Sp_counted_ptr_inplaceIN32pxrInternal_v0_24__pxrReserved__12_GLOBAL__N_120_DispatchingResolver6_CacheESaIvELN9__gnu_cxx12_Lock_policyE2EE6_M_ptrEv(ptr noundef nonnull align 8 dereferenceable(592) %0) #2 align 2 {
  %2 = alloca ptr, align 8
  store ptr %0, ptr %2, align 8
  %3 = load ptr, ptr %2, align 8
  %4 = getelementptr inbounds nuw %"class.std::_Sp_counted_ptr_inplace.320", ptr %3, i32 0, i32 1
  %5 = getelementptr inbounds nuw %"class.std::_Sp_counted_ptr_inplace<pxrInternal_v0_24__pxrReserved__::(anonymous namespace)::_DispatchingResolver::_Cache, std::allocator<void>, __gnu_cxx::_S_atomic>::_Impl", ptr %4, i32 0, i32 0
  %6 = call noundef ptr @_ZN9__gnu_cxx16__aligned_bufferIN32pxrInternal_v0_24__pxrReserved__12_GLOBAL__N_120_DispatchingResolver6_CacheEE6_M_ptrEv(ptr noundef nonnull align 8 dereferenceable(576) %5) #6
  ret ptr %6
}

; Function Attrs: mustprogress nounwind uwtable
define internal noundef nonnull align 1 dereferenceable(1) ptr @_ZNSt23_Sp_counted_ptr_inplaceIN32pxrInternal_v0_24__pxrReserved__12_GLOBAL__N_120_DispatchingResolver6_CacheESaIvELN9__gnu_cxx12_Lock_policyE2EE5_Impl8_M_allocEv(ptr noundef nonnull align 8 dereferenceable(576) %0) #2 align 2 {
  %2 = alloca ptr, align 8
  store ptr %0, ptr %2, align 8
  %3 = load ptr, ptr %2, align 8
  %4 = call noundef nonnull align 1 dereferenceable(1) ptr @_ZNSt14_Sp_ebo_helperILi0ESaIvELb1EE6_S_getERS1_(ptr noundef nonnull align 1 dereferenceable(1) %3)
  ret ptr %4
}

; Function Attrs: mustprogress nounwind uwtable
define internal void @_ZNSt23_Sp_counted_ptr_inplaceIN32pxrInternal_v0_24__pxrReserved__12_GLOBAL__N_120_DispatchingResolver6_CacheESaIvELN9__gnu_cxx12_Lock_policyE2EE10_M_disposeEv(ptr noundef nonnull align 8 dereferenceable(592) %0) unnamed_addr #2 align 2 {
  %2 = alloca ptr, align 8
  store ptr %0, ptr %2, align 8
  %3 = load ptr, ptr %2, align 8
  %4 = getelementptr inbounds nuw %"class.std::_Sp_counted_ptr_inplace.320", ptr %3, i32 0, i32 1
  %5 = call noundef nonnull align 1 dereferenceable(1) ptr @_ZNSt23_Sp_counted_ptr_inplaceIN32pxrInternal_v0_24__pxrReserved__12_GLOBAL__N_120_DispatchingResolver6_CacheESaIvELN9__gnu_cxx12_Lock_policyE2EE5_Impl8_M_allocEv(ptr noundef nonnull align 8 dereferenceable(576) %4) #6
  %6 = call noundef ptr @_ZNSt23_Sp_counted_ptr_inplaceIN32pxrInternal_v0_24__pxrReserved__12_GLOBAL__N_120_DispatchingResolver6_CacheESaIvELN9__gnu_cxx12_Lock_policyE2EE6_M_ptrEv(ptr noundef nonnull align 8 dereferenceable(592) %3) #6
  call void @_ZNSt16allocator_traitsISaIvEE7destroyIN32pxrInternal_v0_24__pxrReserved__12_GLOBAL__N_120_DispatchingResolver6_CacheEEEvRS0_PT_(ptr noundef nonnull align 1 dereferenceable(1) %5, ptr noundef %6) #6
  ret void
}