; Function Attrs: mustprogress nounwind uwtable
define internal void @_ZNSt23_Sp_counted_ptr_inplaceIN32pxrInternal_v0_24__pxrReserved__12_GLOBAL__N_120_DispatchingResolver6_CacheESaIvELN9__gnu_cxx12_Lock_policyE2EE10_M_disposeEv(ptr noundef nonnull align 8 dereferenceable(592) %0) unnamed_addr #6 align 2 personality ptr @__gxx_personality_v0 {
  %2 = getelementptr inbounds nuw i8, ptr %0, i64 16
  invoke void @_ZN3tbb6detail2d219concurrent_hash_mapINSt7__cxx1112basic_stringIcSt11char_traitsIcESaIcEEEN32pxrInternal_v0_24__pxrReserved__14ArResolvedPathENS0_2d116tbb_hash_compareIS8_EENSB_13tbb_allocatorISt4pairIKS8_SA_EEEE5clearEv(ptr noundef nonnull align 8 dereferenceable(570) %2)
          to label %_ZNSt16allocator_traitsISaIvEE7destroyIN32pxrInternal_v0_24__pxrReserved__12_GLOBAL__N_120_DispatchingResolver6_CacheEEEvRS0_PT_.exit unwind label %3

3:                                                ; preds = %1
  %4 = landingpad { ptr, i32 }
          catch ptr null
  %5 = extractvalue { ptr, i32 } %4, 0
  tail call void @__clang_call_terminate(ptr %5) #36
  unreachable

_ZNSt16allocator_traitsISaIvEE7destroyIN32pxrInternal_v0_24__pxrReserved__12_GLOBAL__N_120_DispatchingResolver6_CacheEEEvRS0_PT_.exit: ; preds = %1
  ret void
}